target datalayout = "e-m:e-p270:32:32-p271:32:32-p272:64:64-i64:64-i128:128-f80:128-n8:16:32:64-S128"
target triple = "x86_64-pc-linux-gnu"

@.str.1 = private unnamed_addr constant [7 x i8] c"HIGHVM\00", align 1
@.str.2 = private unnamed_addr constant [7 x i8] c"FVMLIB\00", align 1
@.str.3 = private unnamed_addr constant [8 x i8] c"NORELOC\00", align 1
@.str.4 = private unnamed_addr constant [20 x i8] c"PROTECTED_VERSION_1\00", align 1
@.str.5 = private unnamed_addr constant [10 x i8] c"READ_ONLY\00", align 1
@.str.6 = private unnamed_addr constant [8 x i8] c"UNKNOWN\00", align 1

; Function Attrs: mustprogress nounwind uwtable
define noundef ptr @_ZN4LIEF5MachO9to_stringENS0_14SegmentCommand5FLAGSE(i64 noundef %0) #0 {
  %2 = alloca ptr, align 8
  %3 = alloca i64, align 8
  store i64 %0, ptr %3, align 8, !tbaa !144
  %4 = load i64, ptr %3, align 8, !tbaa !144
  switch i64 %4, label %10 [
    i64 1, label %5
    i64 2, label %6
    i64 4, label %7
    i64 8, label %8
    i64 16, label %9
  ]

5:                                                ; preds = %1
  store ptr @.str.1, ptr %2, align 8
  br label %11

6:                                                ; preds = %1
  store ptr @.str.2, ptr %2, align 8
  br label %11

7:                                                ; preds = %1
  store ptr @.str.3, ptr %2, align 8
  br label %11

8:                                                ; preds = %1
  store ptr @.str.4, ptr %2, align 8
  br label %11

9:                                                ; preds = %1
  store ptr @.str.5, ptr %2, align 8
  br label %11

10:                                               ; preds = %1
  store ptr @.str.6, ptr %2, align 8
  br label %11

11:                                               ; preds = %10, %9, %8, %7, %6, %5
  %12 = load ptr, ptr %2, align 8
  ret ptr %12
}