; Function Attrs: mustprogress nofree norecurse nosync nounwind willreturn memory(none) uwtable
define noundef nonnull ptr @_ZN4LIEF5MachO9to_stringENS0_14SegmentCommand5FLAGSE(i64 noundef %0) local_unnamed_addr #5 {
  switch i64 %0, label %6 [
    i64 1, label %7
    i64 2, label %2
    i64 4, label %3
    i64 8, label %4
    i64 16, label %5
  ]

2:                                                ; preds = %1
  br label %7

3:                                                ; preds = %1
  br label %7

4:                                                ; preds = %1
  br label %7

5:                                                ; preds = %1
  br label %7

6:                                                ; preds = %1
  br label %7

7:                                                ; preds = %1, %6, %5, %4, %3, %2
  %.0 = phi ptr [ @.str.6, %6 ], [ @.str.5, %5 ], [ @.str.4, %4 ], [ @.str.3, %3 ], [ @.str.2, %2 ], [ @.str.1, %1 ]
  ret ptr %.0
}